; Function Attrs: null_pointer_is_valid sspstrong uwtable
define internal i32 @dissect_iec60870_5_103_tcp(ptr noundef %0, ptr noundef %1, ptr noundef %2, ptr noundef %3) #0 {
  %5 = tail call zeroext i8 @tvb_get_uint8(ptr noundef %0, i32 noundef 0)
  switch i8 %5, label %8 [
    i8 -27, label %6
    i8 16, label %6
    i8 104, label %6
  ]

6:                                                ; preds = %4, %4, %4
  tail call void @tcp_dissect_pdus(ptr noundef %0, ptr noundef %1, ptr noundef %2, i1 noundef zeroext true, i32 noundef 1, ptr noundef nonnull @get_iec103_len, ptr noundef nonnull @dissect_iec60870_5_103, ptr noundef %3)
  %7 = tail call i32 @tvb_captured_length(ptr noundef %0)
  br label %8

8:                                                ; preds = %4, %6
  %.0 = phi i32 [ %7, %6 ], [ 0, %4 ]
  ret i32 %.0
}